target datalayout = "e-m:e-p270:32:32-p271:32:32-p272:64:64-i64:64-i128:128-f80:128-n8:16:32:64-S128"
target triple = "x86_64-pc-linux-gnu"

%struct._priv_exr_context_t = type { i8, i8, i8, i8, i8, i8, i8, i8, %struct.exr_attr_string_t, %struct.exr_attr_string_t, ptr, ptr, ptr, ptr, ptr, ptr, ptr, ptr, i32, i32, i32, i32, i32, float, ptr, ptr, ptr, i64, ptr, ptr, i64, i32, i32, i32, i32, %struct._priv_exr_part_t, ptr, ptr, %struct.exr_attribute_list, %union.pthread_mutex_t, i8, i8, [2 x i8], i32 }
%struct.exr_attr_string_t = type { i32, i32, ptr }
%struct._priv_exr_part_t = type { i32, i32, %struct.exr_attribute_list, ptr, ptr, ptr, ptr, ptr, ptr, ptr, ptr, ptr, ptr, ptr, ptr, ptr, ptr, %struct.exr_attr_box2i_t, %struct.exr_attr_box2i_t, i32, i32, i32, float, i32, i32, ptr, ptr, ptr, ptr, i64, i16, i16, i32, i64, i64 }
%struct.exr_attr_box2i_t = type { %struct.exr_attr_v2i_t, %struct.exr_attr_v2i_t }
%struct.exr_attr_v2i_t = type { i32, i32 }
%struct.exr_attribute_list = type { i32, i32, ptr, ptr }
%union.pthread_mutex_t = type { %struct.__pthread_mutex_s }
%struct.__pthread_mutex_s = type { i32, i32, i32, i32, i32, i16, i16, %struct.__pthread_internal_list }
%struct.__pthread_internal_list = type { ptr, ptr }
%struct.exr_attribute_t = type { ptr, ptr, i8, i8, [2 x i8], i32, %union.anon }
%union.anon = type { double }
%struct.exr_attr_tiledesc_t = type <{ i32, i32, i8 }>

@.str = private unnamed_addr constant [29 x i8] c"Part index (%d) out of range\00", align 1
@.str.15 = private unnamed_addr constant [49 x i8] c"Invalid required attribute type '%s' for 'tiles'\00", align 1

; Function Attrs: inlinehint nounwind uwtable
define internal void @internal_exr_unlock(ptr noundef %0) #2 {
  %2 = alloca ptr, align 8
  %3 = alloca ptr, align 8
  store ptr %0, ptr %2, align 8, !tbaa !3
  call void @llvm.lifetime.start.p0(i64 8, ptr %3) #8
  %4 = load ptr, ptr %2, align 8, !tbaa !3
  %5 = ptrtoint ptr %4 to i64
  %6 = inttoptr i64 %5 to ptr
  store ptr %6, ptr %3, align 8, !tbaa !3
  %7 = load ptr, ptr %3, align 8, !tbaa !3
  %8 = getelementptr inbounds nuw %struct._priv_exr_context_t, ptr %7, i32 0, i32 39
  %9 = call i32 @pthread_mutex_unlock(ptr noundef %8) #8
  call void @llvm.lifetime.end.p0(i64 8, ptr %3) #8
  ret void
}

; Function Attrs: inlinehint nounwind uwtable
define internal void @internal_exr_lock(ptr noundef %0) #2 {
  %2 = alloca ptr, align 8
  %3 = alloca ptr, align 8
  store ptr %0, ptr %2, align 8, !tbaa !3
  call void @llvm.lifetime.start.p0(i64 8, ptr %3) #8
  %4 = load ptr, ptr %2, align 8, !tbaa !3
  %5 = ptrtoint ptr %4 to i64
  %6 = inttoptr i64 %5 to ptr
  store ptr %6, ptr %3, align 8, !tbaa !3
  %7 = load ptr, ptr %3, align 8, !tbaa !3
  %8 = getelementptr inbounds nuw %struct._priv_exr_context_t, ptr %7, i32 0, i32 39
  %9 = call i32 @pthread_mutex_lock(ptr noundef %8) #8
  call void @llvm.lifetime.end.p0(i64 8, ptr %3) #8
  ret void
}

; Function Attrs: nounwind uwtable
define i32 @exr_get_tile_descriptor(ptr noundef %0, i32 noundef %1, ptr noundef %2, ptr noundef %3, ptr noundef %4, ptr noundef %5) #0 {
  %7 = alloca i32, align 4
  %8 = alloca ptr, align 8
  %9 = alloca i32, align 4
  %10 = alloca ptr, align 8
  %11 = alloca ptr, align 8
  %12 = alloca ptr, align 8
  %13 = alloca ptr, align 8
  %14 = alloca ptr, align 8
  %15 = alloca i32, align 4
  %16 = alloca ptr, align 8
  store ptr %0, ptr %8, align 8, !tbaa !3
  store i32 %1, ptr %9, align 4, !tbaa !8
  store ptr %2, ptr %10, align 8, !tbaa !10
  store ptr %3, ptr %11, align 8, !tbaa !10
  store ptr %4, ptr %12, align 8, !tbaa !35
  store ptr %5, ptr %13, align 8, !tbaa !35
  call void @llvm.lifetime.start.p0(i64 8, ptr %14) #8
  %17 = load ptr, ptr %8, align 8, !tbaa !3
  %18 = icmp ne ptr %17, null
  br i1 %18, label %20, label %19

19:                                               ; preds = %6
  store i32 2, ptr %7, align 4
  store i32 1, ptr %15, align 4
  br label %154

20:                                               ; preds = %6
  %21 = load ptr, ptr %8, align 8, !tbaa !3
  %22 = getelementptr inbounds nuw %struct._priv_exr_context_t, ptr %21, i32 0, i32 0
  %23 = load i8, ptr %22, align 8, !tbaa !12
  %24 = zext i8 %23 to i32
  %25 = icmp eq i32 %24, 1
  br i1 %25, label %26, label %28

26:                                               ; preds = %20
  %27 = load ptr, ptr %8, align 8, !tbaa !3
  call void @internal_exr_lock(ptr noundef %27)
  br label %28

28:                                               ; preds = %26, %20
  %29 = load i32, ptr %9, align 4, !tbaa !8
  %30 = icmp slt i32 %29, 0
  br i1 %30, label %37, label %31

31:                                               ; preds = %28
  %32 = load i32, ptr %9, align 4, !tbaa !8
  %33 = load ptr, ptr %8, align 8, !tbaa !3
  %34 = getelementptr inbounds nuw %struct._priv_exr_context_t, ptr %33, i32 0, i32 34
  %35 = load i32, ptr %34, align 4, !tbaa !26
  %36 = icmp sge i32 %32, %35
  br i1 %36, label %37, label %52

37:                                               ; preds = %31, %28
  %38 = load ptr, ptr %8, align 8, !tbaa !3
  %39 = getelementptr inbounds nuw %struct._priv_exr_context_t, ptr %38, i32 0, i32 0
  %40 = load i8, ptr %39, align 8, !tbaa !12
  %41 = zext i8 %40 to i32
  %42 = icmp eq i32 %41, 1
  br i1 %42, label %43, label %45

43:                                               ; preds = %37
  %44 = load ptr, ptr %8, align 8, !tbaa !3
  call void @internal_exr_unlock(ptr noundef %44)
  br label %45

45:                                               ; preds = %43, %37
  %46 = load ptr, ptr %8, align 8, !tbaa !3
  %47 = getelementptr inbounds nuw %struct._priv_exr_context_t, ptr %46, i32 0, i32 14
  %48 = load ptr, ptr %47, align 8, !tbaa !27
  %49 = load ptr, ptr %8, align 8, !tbaa !3
  %50 = load i32, ptr %9, align 4, !tbaa !8
  %51 = call i32 (ptr, i32, ptr, ...) %48(ptr noundef %49, i32 noundef 4, ptr noundef @.str, i32 noundef %50)
  store i32 %51, ptr %7, align 4
  store i32 1, ptr %15, align 4
  br label %154

52:                                               ; preds = %31
  %53 = load ptr, ptr %8, align 8, !tbaa !3
  %54 = getelementptr inbounds nuw %struct._priv_exr_context_t, ptr %53, i32 0, i32 37
  %55 = load ptr, ptr %54, align 8, !tbaa !28
  %56 = load i32, ptr %9, align 4, !tbaa !8
  %57 = sext i32 %56 to i64
  %58 = getelementptr inbounds ptr, ptr %55, i64 %57
  %59 = load ptr, ptr %58, align 8, !tbaa !29
  store ptr %59, ptr %14, align 8, !tbaa !29
  %60 = load ptr, ptr %14, align 8, !tbaa !29
  %61 = getelementptr inbounds nuw %struct._priv_exr_part_t, ptr %60, i32 0, i32 11
  %62 = load ptr, ptr %61, align 8, !tbaa !65
  %63 = icmp ne ptr %62, null
  br i1 %63, label %64, label %144

64:                                               ; preds = %52
  call void @llvm.lifetime.start.p0(i64 8, ptr %16) #8
  %65 = load ptr, ptr %14, align 8, !tbaa !29
  %66 = getelementptr inbounds nuw %struct._priv_exr_part_t, ptr %65, i32 0, i32 11
  %67 = load ptr, ptr %66, align 8, !tbaa !65
  %68 = getelementptr inbounds nuw %struct.exr_attribute_t, ptr %67, i32 0, i32 6
  %69 = load ptr, ptr %68, align 8, !tbaa !42
  store ptr %69, ptr %16, align 8, !tbaa !35
  %70 = load ptr, ptr %14, align 8, !tbaa !29
  %71 = getelementptr inbounds nuw %struct._priv_exr_part_t, ptr %70, i32 0, i32 11
  %72 = load ptr, ptr %71, align 8, !tbaa !65
  %73 = getelementptr inbounds nuw %struct.exr_attribute_t, ptr %72, i32 0, i32 5
  %74 = load i32, ptr %73, align 4, !tbaa !39
  %75 = icmp ne i32 %74, 21
  br i1 %75, label %76, label %96

76:                                               ; preds = %64
  %77 = load ptr, ptr %8, align 8, !tbaa !3
  %78 = getelementptr inbounds nuw %struct._priv_exr_context_t, ptr %77, i32 0, i32 0
  %79 = load i8, ptr %78, align 8, !tbaa !12
  %80 = zext i8 %79 to i32
  %81 = icmp eq i32 %80, 1
  br i1 %81, label %82, label %84

82:                                               ; preds = %76
  %83 = load ptr, ptr %8, align 8, !tbaa !3
  call void @internal_exr_unlock(ptr noundef %83)
  br label %85

84:                                               ; preds = %76
  br label %85

85:                                               ; preds = %84, %82
  %86 = load ptr, ptr %8, align 8, !tbaa !3
  %87 = getelementptr inbounds nuw %struct._priv_exr_context_t, ptr %86, i32 0, i32 14
  %88 = load ptr, ptr %87, align 8, !tbaa !27
  %89 = load ptr, ptr %8, align 8, !tbaa !3
  %90 = load ptr, ptr %14, align 8, !tbaa !29
  %91 = getelementptr inbounds nuw %struct._priv_exr_part_t, ptr %90, i32 0, i32 11
  %92 = load ptr, ptr %91, align 8, !tbaa !65
  %93 = getelementptr inbounds nuw %struct.exr_attribute_t, ptr %92, i32 0, i32 1
  %94 = load ptr, ptr %93, align 8, !tbaa !41
  %95 = call i32 (ptr, i32, ptr, ...) %88(ptr noundef %89, i32 noundef 6, ptr noundef @.str.15, ptr noundef %94)
  store i32 %95, ptr %7, align 4
  store i32 1, ptr %15, align 4
  br label %143

96:                                               ; preds = %64
  %97 = load ptr, ptr %10, align 8, !tbaa !10
  %98 = icmp ne ptr %97, null
  br i1 %98, label %99, label %104

99:                                               ; preds = %96
  %100 = load ptr, ptr %16, align 8, !tbaa !35
  %101 = getelementptr inbounds nuw %struct.exr_attr_tiledesc_t, ptr %100, i32 0, i32 0
  %102 = load i32, ptr %101, align 1, !tbaa !96
  %103 = load ptr, ptr %10, align 8, !tbaa !10
  store i32 %102, ptr %103, align 4, !tbaa !8
  br label %104

104:                                              ; preds = %99, %96
  %105 = load ptr, ptr %11, align 8, !tbaa !10
  %106 = icmp ne ptr %105, null
  br i1 %106, label %107, label %112

107:                                              ; preds = %104
  %108 = load ptr, ptr %16, align 8, !tbaa !35
  %109 = getelementptr inbounds nuw %struct.exr_attr_tiledesc_t, ptr %108, i32 0, i32 1
  %110 = load i32, ptr %109, align 1, !tbaa !98
  %111 = load ptr, ptr %11, align 8, !tbaa !10
  store i32 %110, ptr %111, align 4, !tbaa !8
  br label %112

112:                                              ; preds = %107, %104
  %113 = load ptr, ptr %12, align 8, !tbaa !35
  %114 = icmp ne ptr %113, null
  br i1 %114, label %115, label %122

115:                                              ; preds = %112
  %116 = load ptr, ptr %16, align 8, !tbaa !35
  %117 = getelementptr inbounds nuw %struct.exr_attr_tiledesc_t, ptr %116, i32 0, i32 2
  %118 = load i8, ptr %117, align 1, !tbaa !99
  %119 = zext i8 %118 to i32
  %120 = and i32 %119, 15
  %121 = load ptr, ptr %12, align 8, !tbaa !35
  store i32 %120, ptr %121, align 4, !tbaa !8
  br label %122

122:                                              ; preds = %115, %112
  %123 = load ptr, ptr %13, align 8, !tbaa !35
  %124 = icmp ne ptr %123, null
  br i1 %124, label %125, label %133

125:                                              ; preds = %122
  %126 = load ptr, ptr %16, align 8, !tbaa !35
  %127 = getelementptr inbounds nuw %struct.exr_attr_tiledesc_t, ptr %126, i32 0, i32 2
  %128 = load i8, ptr %127, align 1, !tbaa !99
  %129 = zext i8 %128 to i32
  %130 = ashr i32 %129, 4
  %131 = and i32 %130, 15
  %132 = load ptr, ptr %13, align 8, !tbaa !35
  store i32 %131, ptr %132, align 4, !tbaa !8
  br label %133

133:                                              ; preds = %125, %122
  %134 = load ptr, ptr %8, align 8, !tbaa !3
  %135 = getelementptr inbounds nuw %struct._priv_exr_context_t, ptr %134, i32 0, i32 0
  %136 = load i8, ptr %135, align 8, !tbaa !12
  %137 = zext i8 %136 to i32
  %138 = icmp eq i32 %137, 1
  br i1 %138, label %139, label %141

139:                                              ; preds = %133
  %140 = load ptr, ptr %8, align 8, !tbaa !3
  call void @internal_exr_unlock(ptr noundef %140)
  br label %142

141:                                              ; preds = %133
  br label %142

142:                                              ; preds = %141, %139
  store i32 0, ptr %7, align 4
  store i32 1, ptr %15, align 4
  br label %143

143:                                              ; preds = %142, %85
  call void @llvm.lifetime.end.p0(i64 8, ptr %16) #8
  br label %154

144:                                              ; preds = %52
  %145 = load ptr, ptr %8, align 8, !tbaa !3
  %146 = getelementptr inbounds nuw %struct._priv_exr_context_t, ptr %145, i32 0, i32 0
  %147 = load i8, ptr %146, align 8, !tbaa !12
  %148 = zext i8 %147 to i32
  %149 = icmp eq i32 %148, 1
  br i1 %149, label %150, label %152

150:                                              ; preds = %144
  %151 = load ptr, ptr %8, align 8, !tbaa !3
  call void @internal_exr_unlock(ptr noundef %151)
  br label %153

152:                                              ; preds = %144
  br label %153

153:                                              ; preds = %152, %150
  store i32 15, ptr %7, align 4
  store i32 1, ptr %15, align 4
  br label %154

154:                                              ; preds = %153, %143, %45, %19
  call void @llvm.lifetime.end.p0(i64 8, ptr %14) #8
  %155 = load i32, ptr %7, align 4
  ret i32 %155
}