; Function Attrs: nounwind uwtable
define i32 @exr_get_tile_descriptor(ptr noundef %0, i32 noundef %1, ptr noundef writeonly %2, ptr noundef writeonly %3, ptr noundef writeonly %4, ptr noundef writeonly %5) local_unnamed_addr #0 {
  %.not = icmp eq ptr %0, null
  br i1 %.not, label %85, label %7

7:                                                ; preds = %6
  %8 = load i8, ptr %0, align 8, !tbaa !3
  %9 = icmp eq i8 %8, 1
  br i1 %9, label %10, label %13

10:                                               ; preds = %7
  %11 = getelementptr inbounds nuw i8, ptr %0, i64 504
  %12 = tail call i32 @pthread_mutex_lock(ptr noundef nonnull %11) #6
  br label %13

13:                                               ; preds = %10, %7
  %14 = icmp slt i32 %1, 0
  br i1 %14, label %18, label %15

15:                                               ; preds = %13
  %16 = getelementptr inbounds nuw i8, ptr %0, i64 196
  %17 = load i32, ptr %16, align 4, !tbaa !22
  %.not44 = icmp slt i32 %1, %17
  br i1 %.not44, label %28, label %18

18:                                               ; preds = %15, %13
  %19 = load i8, ptr %0, align 8, !tbaa !3
  %20 = icmp eq i8 %19, 1
  br i1 %20, label %21, label %24

21:                                               ; preds = %18
  %22 = getelementptr inbounds nuw i8, ptr %0, i64 504
  %23 = tail call i32 @pthread_mutex_unlock(ptr noundef nonnull %22) #6
  br label %24

24:                                               ; preds = %21, %18
  %25 = getelementptr inbounds nuw i8, ptr %0, i64 72
  %26 = load ptr, ptr %25, align 8, !tbaa !23
  %27 = tail call i32 (ptr, i32, ptr, ...) %26(ptr noundef nonnull %0, i32 noundef 4, ptr noundef nonnull @.str, i32 noundef %1) #6
  br label %85

28:                                               ; preds = %15
  %29 = getelementptr inbounds nuw i8, ptr %0, i64 472
  %30 = load ptr, ptr %29, align 8, !tbaa !24
  %31 = zext nneg i32 %1 to i64
  %32 = getelementptr inbounds nuw ptr, ptr %30, i64 %31
  %33 = load ptr, ptr %32, align 8, !tbaa !25
  %34 = getelementptr inbounds nuw i8, ptr %33, i64 96
  %35 = load ptr, ptr %34, align 8, !tbaa !83
  %.not45 = icmp eq ptr %35, null
  br i1 %.not45, label %79, label %36

36:                                               ; preds = %28
  %37 = getelementptr inbounds nuw i8, ptr %35, i64 24
  %38 = load ptr, ptr %37, align 8, !tbaa !35
  %39 = getelementptr inbounds nuw i8, ptr %35, i64 20
  %40 = load i32, ptr %39, align 4, !tbaa !32
  %.not46 = icmp eq i32 %40, 21
  br i1 %.not46, label %54, label %41

41:                                               ; preds = %36
  %42 = load i8, ptr %0, align 8, !tbaa !3
  %43 = icmp eq i8 %42, 1
  br i1 %43, label %44, label %47

44:                                               ; preds = %41
  %45 = getelementptr inbounds nuw i8, ptr %0, i64 504
  %46 = tail call i32 @pthread_mutex_unlock(ptr noundef nonnull %45) #6
  %.pre = load ptr, ptr %34, align 8, !tbaa !83
  br label %47

47:                                               ; preds = %41, %44
  %48 = phi ptr [ %35, %41 ], [ %.pre, %44 ]
  %49 = getelementptr inbounds nuw i8, ptr %0, i64 72
  %50 = load ptr, ptr %49, align 8, !tbaa !23
  %51 = getelementptr inbounds nuw i8, ptr %48, i64 8
  %52 = load ptr, ptr %51, align 8, !tbaa !34
  %53 = tail call i32 (ptr, i32, ptr, ...) %50(ptr noundef nonnull %0, i32 noundef 6, ptr noundef nonnull @.str.15, ptr noundef %52) #6
  br label %85

54:                                               ; preds = %36
  %.not47 = icmp eq ptr %2, null
  br i1 %.not47, label %57, label %55

55:                                               ; preds = %54
  %56 = load i32, ptr %38, align 1, !tbaa !84
  store i32 %56, ptr %2, align 4, !tbaa !28
  br label %57

57:                                               ; preds = %55, %54
  %.not48 = icmp eq ptr %3, null
  br i1 %.not48, label %61, label %58

58:                                               ; preds = %57
  %59 = getelementptr inbounds nuw i8, ptr %38, i64 4
  %60 = load i32, ptr %59, align 1, !tbaa !86
  store i32 %60, ptr %3, align 4, !tbaa !28
  br label %61

61:                                               ; preds = %58, %57
  %.not49 = icmp eq ptr %4, null
  br i1 %.not49, label %67, label %62

62:                                               ; preds = %61
  %63 = getelementptr inbounds nuw i8, ptr %38, i64 8
  %64 = load i8, ptr %63, align 1, !tbaa !87
  %65 = and i8 %64, 15
  %66 = zext nneg i8 %65 to i32
  store i32 %66, ptr %4, align 4, !tbaa !28
  br label %67

67:                                               ; preds = %62, %61
  %.not50 = icmp eq ptr %5, null
  br i1 %.not50, label %73, label %68

68:                                               ; preds = %67
  %69 = getelementptr inbounds nuw i8, ptr %38, i64 8
  %70 = load i8, ptr %69, align 1, !tbaa !87
  %71 = lshr i8 %70, 4
  %72 = zext nneg i8 %71 to i32
  store i32 %72, ptr %5, align 4, !tbaa !28
  br label %73

73:                                               ; preds = %68, %67
  %74 = load i8, ptr %0, align 8, !tbaa !3
  %75 = icmp eq i8 %74, 1
  br i1 %75, label %76, label %85

76:                                               ; preds = %73
  %77 = getelementptr inbounds nuw i8, ptr %0, i64 504
  %78 = tail call i32 @pthread_mutex_unlock(ptr noundef nonnull %77) #6
  br label %85

79:                                               ; preds = %28
  %80 = load i8, ptr %0, align 8, !tbaa !3
  %81 = icmp eq i8 %80, 1
  br i1 %81, label %82, label %85

82:                                               ; preds = %79
  %83 = getelementptr inbounds nuw i8, ptr %0, i64 504
  %84 = tail call i32 @pthread_mutex_unlock(ptr noundef nonnull %83) #6
  br label %85

85:                                               ; preds = %82, %79, %47, %73, %76, %6, %24
  %.0 = phi i32 [ %27, %24 ], [ 2, %6 ], [ %53, %47 ], [ 0, %73 ], [ 0, %76 ], [ 15, %79 ], [ 15, %82 ]
  ret i32 %.0
}